ARM GAS  C:\Users\labview\AppData\Local\Temp\ccZUtUIj.s 			page 1


   1              		.syntax unified
   2              		.cpu cortex-m0
   3              		.fpu softvfp
   4              		.eabi_attribute 20, 1
   5              		.eabi_attribute 21, 1
   6              		.eabi_attribute 23, 3
   7              		.eabi_attribute 24, 1
   8              		.eabi_attribute 25, 1
   9              		.eabi_attribute 26, 1
  10              		.eabi_attribute 30, 1
  11              		.eabi_attribute 34, 0
  12              		.eabi_attribute 18, 4
  13              		.thumb
  14              		.syntax unified
  15              		.file	"main.c"
  16              		.text
  17              	.Ltext0:
  18              		.cfi_sections	.debug_frame
  19              		.section	.text.Timer_ISR,"ax",%progbits
  20              		.align	2
  21              		.global	Timer_ISR
  22              		.code	16
  23              		.thumb_func
  24              		.type	Timer_ISR, %function
  25              	Timer_ISR:
  26              	.LFB34:
  27              		.file 1 "main.c"
   1:main.c        **** /* ========================================
   2:main.c        ****  *
   3:main.c        ****  * Copyright YOUR COMPANY, THE YEAR
   4:main.c        ****  * All Rights Reserved
   5:main.c        ****  * UNPUBLISHED, LICENSED SOFTWARE.
   6:main.c        ****  *
   7:main.c        ****  * CONFIDENTIAL AND PROPRIETARY INFORMATION
   8:main.c        ****  * WHICH IS THE PROPERTY OF your company.
   9:main.c        ****  *
  10:main.c        ****  * ========================================
  11:main.c        **** */
  12:main.c        **** #include "project.h"
  13:main.c        **** 
  14:main.c        **** 
  15:main.c        **** 
  16:main.c        **** CY_ISR(Timer_ISR)
  17:main.c        **** {
  28              		.loc 1 17 0
  29              		.cfi_startproc
  30              		@ args = 0, pretend = 0, frame = 0
  31              		@ frame_needed = 0, uses_anonymous_args = 0
  32 0000 10B5     		push	{r4, lr}
  33              		.cfi_def_cfa_offset 8
  34              		.cfi_offset 4, -8
  35              		.cfi_offset 14, -4
  18:main.c        ****     
  19:main.c        ****     static int cunter =-1;
  20:main.c        **** 
  21:main.c        ****     cunter++;
  36              		.loc 1 21 0
ARM GAS  C:\Users\labview\AppData\Local\Temp\ccZUtUIj.s 			page 2


  37 0002 0C4A     		ldr	r2, .L6
  38 0004 1368     		ldr	r3, [r2]
  39 0006 0133     		adds	r3, r3, #1
  40 0008 1360     		str	r3, [r2]
  22:main.c        **** 
  23:main.c        ****     switch(cunter){
  41              		.loc 1 23 0
  42 000a 022B     		cmp	r3, #2
  43 000c 07D0     		beq	.L3
  44 000e 032B     		cmp	r3, #3
  45 0010 09D0     		beq	.L4
  46 0012 002B     		cmp	r3, #0
  47 0014 0DD1     		bne	.L1
  24:main.c        ****         
  25:main.c        ****         case 0: 
  26:main.c        ****             LED_BLUE_Write(0);// Allumer la LED
  48              		.loc 1 26 0
  49 0016 0020     		movs	r0, #0
  50 0018 FFF7FEFF 		bl	LED_BLUE_Write
  51              	.LVL0:
  27:main.c        ****         break;
  52              		.loc 1 27 0
  53 001c 09E0     		b	.L1
  54              	.L3:
  28:main.c        ****         
  29:main.c        ****         case 2:
  30:main.c        ****             LED_BLUE_Write(1);// Eteindre la LED
  55              		.loc 1 30 0
  56 001e 0120     		movs	r0, #1
  57 0020 FFF7FEFF 		bl	LED_BLUE_Write
  58              	.LVL1:
  31:main.c        ****         break;
  59              		.loc 1 31 0
  60 0024 05E0     		b	.L1
  61              	.L4:
  32:main.c        ****             
  33:main.c        ****         case 3 : 
  34:main.c        ****             LED_BLUE_Write(0);// Allumer la LED
  62              		.loc 1 34 0
  63 0026 0020     		movs	r0, #0
  64 0028 FFF7FEFF 		bl	LED_BLUE_Write
  65              	.LVL2:
  35:main.c        ****             cunter =0;
  66              		.loc 1 35 0
  67 002c 0022     		movs	r2, #0
  68 002e 014B     		ldr	r3, .L6
  69 0030 1A60     		str	r2, [r3]
  70              	.L1:
  36:main.c        ****         break;
  37:main.c        ****             
  38:main.c        ****         default:
  39:main.c        ****         break;
  40:main.c        ****            
  41:main.c        ****     }
  42:main.c        ****     
  43:main.c        **** }
  71              		.loc 1 43 0
ARM GAS  C:\Users\labview\AppData\Local\Temp\ccZUtUIj.s 			page 3


  72              		@ sp needed
  73 0032 10BD     		pop	{r4, pc}
  74              	.L7:
  75              		.align	2
  76              	.L6:
  77 0034 00000000 		.word	.LANCHOR0
  78              		.cfi_endproc
  79              	.LFE34:
  80              		.size	Timer_ISR, .-Timer_ISR
  81              		.section	.text.main,"ax",%progbits
  82              		.align	2
  83              		.global	main
  84              		.code	16
  85              		.thumb_func
  86              		.type	main, %function
  87              	main:
  88              	.LFB35:
  44:main.c        **** 
  45:main.c        **** 
  46:main.c        **** 
  47:main.c        **** int main(void)
  48:main.c        **** {
  89              		.loc 1 48 0
  90              		.cfi_startproc
  91              		@ Volatile: function does not return.
  92              		@ args = 0, pretend = 0, frame = 0
  93              		@ frame_needed = 0, uses_anonymous_args = 0
  94 0000 10B5     		push	{r4, lr}
  95              		.cfi_def_cfa_offset 8
  96              		.cfi_offset 4, -8
  97              		.cfi_offset 14, -4
  49:main.c        ****     CyGlobalIntEnable; // Activer les interruptions globales
  98              		.loc 1 49 0
  99              		.syntax divided
 100              	@ 49 "main.c" 1
 101 0002 62B6     		CPSIE   i
 102              	@ 0 "" 2
  50:main.c        **** 
  51:main.c        ****  
  52:main.c        ****     Timer_Int_10_StartEx(Timer_ISR);
 103              		.loc 1 52 0
 104              		.thumb
 105              		.syntax unified
 106 0004 0248     		ldr	r0, .L10
 107 0006 FFF7FEFF 		bl	Timer_Int_10_StartEx
 108              	.LVL3:
  53:main.c        ****     
  54:main.c        ****     Timer_1_Start();
 109              		.loc 1 54 0
 110 000a FFF7FEFF 		bl	Timer_1_Start
 111              	.LVL4:
 112              	.L9:
 113 000e FEE7     		b	.L9
 114              	.L11:
 115              		.align	2
 116              	.L10:
 117 0010 00000000 		.word	Timer_ISR
ARM GAS  C:\Users\labview\AppData\Local\Temp\ccZUtUIj.s 			page 4


 118              		.cfi_endproc
 119              	.LFE35:
 120              		.size	main, .-main
 121              		.data
 122              		.align	2
 123              		.set	.LANCHOR0,. + 0
 124              		.type	cunter.5453, %object
 125              		.size	cunter.5453, 4
 126              	cunter.5453:
 127 0000 FFFFFFFF 		.word	-1
 128              		.text
 129              	.Letext0:
 130              		.file 2 "Generated_Source\\PSoC4/LED_BLUE.h"
 131              		.file 3 "Generated_Source\\PSoC4/Timer_Int_10.h"
 132              		.file 4 "Generated_Source\\PSoC4/Timer_1.h"